target datalayout = "e-m:e-p270:32:32-p271:32:32-p272:64:64-i64:64-i128:128-f80:128-n8:16:32:64-S128"
target triple = "x86_64-pc-linux-gnu"

%class.b3BoundSearchCL = type { ptr, ptr, ptr, ptr, ptr, ptr, ptr, ptr, ptr, ptr, ptr }

@_ZTV15b3BoundSearchCL = dso_local unnamed_addr constant { [4 x ptr] } { [4 x ptr] [ptr null, ptr @_ZTI15b3BoundSearchCL, ptr @_ZN15b3BoundSearchCLD1Ev, ptr @_ZN15b3BoundSearchCLD0Ev] }, align 8
@__clewReleaseKernel = external global ptr, align 8

; Function Attrs: mustprogress nounwind uwtable
define dso_local void @_ZN15b3BoundSearchCLD2Ev(ptr noundef nonnull align 8 dereferenceable(88) %0) unnamed_addr #6 align 2 personality ptr @__gxx_personality_v0 {
  %2 = alloca ptr, align 8
  store ptr %0, ptr %2, align 8, !tbaa !4
  %3 = load ptr, ptr %2, align 8
  store ptr getelementptr inbounds inrange(-16, 16) ({ [4 x ptr] }, ptr @_ZTV15b3BoundSearchCL, i32 0, i32 0, i32 2), ptr %3, align 8, !tbaa !17
  %4 = getelementptr inbounds nuw %class.b3BoundSearchCL, ptr %3, i32 0, i32 8
  %5 = load ptr, ptr %4, align 8, !tbaa !34
  %6 = icmp eq ptr %5, null
  br i1 %6, label %11, label %7

7:                                                ; preds = %1
  %8 = load ptr, ptr %5, align 8, !tbaa !17
  %9 = getelementptr inbounds ptr, ptr %8, i64 1
  %10 = load ptr, ptr %9, align 8
  call void %10(ptr noundef nonnull align 8 dereferenceable(50) %5) #11
  br label %11

11:                                               ; preds = %7, %1
  %12 = getelementptr inbounds nuw %class.b3BoundSearchCL, ptr %3, i32 0, i32 9
  %13 = load ptr, ptr %12, align 8, !tbaa !35
  %14 = icmp eq ptr %13, null
  br i1 %14, label %19, label %15

15:                                               ; preds = %11
  %16 = load ptr, ptr %13, align 8, !tbaa !17
  %17 = getelementptr inbounds ptr, ptr %16, i64 1
  %18 = load ptr, ptr %17, align 8
  call void %18(ptr noundef nonnull align 8 dereferenceable(50) %13) #11
  br label %19

19:                                               ; preds = %15, %11
  %20 = getelementptr inbounds nuw %class.b3BoundSearchCL, ptr %3, i32 0, i32 10
  %21 = load ptr, ptr %20, align 8, !tbaa !36
  %22 = icmp eq ptr %21, null
  br i1 %22, label %27, label %23

23:                                               ; preds = %19
  %24 = load ptr, ptr %21, align 8, !tbaa !17
  %25 = getelementptr inbounds ptr, ptr %24, i64 1
  %26 = load ptr, ptr %25, align 8
  call void %26(ptr noundef nonnull align 8 dereferenceable(48) %21) #11
  br label %27

27:                                               ; preds = %23, %19
  %28 = load ptr, ptr @__clewReleaseKernel, align 8, !tbaa !55
  %29 = getelementptr inbounds nuw %class.b3BoundSearchCL, ptr %3, i32 0, i32 4
  %30 = load ptr, ptr %29, align 8, !tbaa !31
  %31 = invoke i32 %28(ptr noundef %30)
          to label %32 unwind label %43

32:                                               ; preds = %27
  %33 = load ptr, ptr @__clewReleaseKernel, align 8, !tbaa !55
  %34 = getelementptr inbounds nuw %class.b3BoundSearchCL, ptr %3, i32 0, i32 5
  %35 = load ptr, ptr %34, align 8, !tbaa !32
  %36 = invoke i32 %33(ptr noundef %35)
          to label %37 unwind label %43

37:                                               ; preds = %32
  %38 = load ptr, ptr @__clewReleaseKernel, align 8, !tbaa !55
  %39 = getelementptr inbounds nuw %class.b3BoundSearchCL, ptr %3, i32 0, i32 6
  %40 = load ptr, ptr %39, align 8, !tbaa !33
  %41 = invoke i32 %38(ptr noundef %40)
          to label %42 unwind label %43

42:                                               ; preds = %37
  ret void

43:                                               ; preds = %37, %32, %27
  %44 = landingpad { ptr, i32 }
          catch ptr null
  %45 = extractvalue { ptr, i32 } %44, 0
  call void @__clang_call_terminate(ptr %45) #14
  unreachable
}