; Function Attrs: mustprogress nounwind uwtable
define dso_local void @_ZN15b3BoundSearchCLD2Ev(ptr noundef nonnull align 8 captures(none) dereferenceable(88) initializes((0, 8)) %0) unnamed_addr #5 align 2 personality ptr @__gxx_personality_v0 {
  store ptr getelementptr inbounds nuw inrange(-16, 16) (i8, ptr @_ZTV15b3BoundSearchCL, i64 16), ptr %0, align 8, !tbaa !4
  %2 = getelementptr inbounds nuw i8, ptr %0, i64 64
  %3 = load ptr, ptr %2, align 8, !tbaa !23
  %4 = icmp eq ptr %3, null
  br i1 %4, label %9, label %5

5:                                                ; preds = %1
  %6 = load ptr, ptr %3, align 8, !tbaa !4
  %7 = getelementptr inbounds nuw i8, ptr %6, i64 8
  %8 = load ptr, ptr %7, align 8
  tail call void %8(ptr noundef nonnull align 8 dereferenceable(50) %3) #13
  br label %9

9:                                                ; preds = %5, %1
  %10 = getelementptr inbounds nuw i8, ptr %0, i64 72
  %11 = load ptr, ptr %10, align 8, !tbaa !24
  %12 = icmp eq ptr %11, null
  br i1 %12, label %17, label %13

13:                                               ; preds = %9
  %14 = load ptr, ptr %11, align 8, !tbaa !4
  %15 = getelementptr inbounds nuw i8, ptr %14, i64 8
  %16 = load ptr, ptr %15, align 8
  tail call void %16(ptr noundef nonnull align 8 dereferenceable(50) %11) #13
  br label %17

17:                                               ; preds = %13, %9
  %18 = getelementptr inbounds nuw i8, ptr %0, i64 80
  %19 = load ptr, ptr %18, align 8, !tbaa !25
  %20 = icmp eq ptr %19, null
  br i1 %20, label %25, label %21

21:                                               ; preds = %17
  %22 = load ptr, ptr %19, align 8, !tbaa !4
  %23 = getelementptr inbounds nuw i8, ptr %22, i64 8
  %24 = load ptr, ptr %23, align 8
  tail call void %24(ptr noundef nonnull align 8 dereferenceable(48) %19) #13
  br label %25

25:                                               ; preds = %21, %17
  %26 = load ptr, ptr @__clewReleaseKernel, align 8, !tbaa !34
  %27 = getelementptr inbounds nuw i8, ptr %0, i64 32
  %28 = load ptr, ptr %27, align 8, !tbaa !20
  %29 = invoke i32 %26(ptr noundef %28)
          to label %30 unwind label %41

30:                                               ; preds = %25
  %31 = load ptr, ptr @__clewReleaseKernel, align 8, !tbaa !34
  %32 = getelementptr inbounds nuw i8, ptr %0, i64 40
  %33 = load ptr, ptr %32, align 8, !tbaa !21
  %34 = invoke i32 %31(ptr noundef %33)
          to label %35 unwind label %41

35:                                               ; preds = %30
  %36 = load ptr, ptr @__clewReleaseKernel, align 8, !tbaa !34
  %37 = getelementptr inbounds nuw i8, ptr %0, i64 48
  %38 = load ptr, ptr %37, align 8, !tbaa !22
  %39 = invoke i32 %36(ptr noundef %38)
          to label %40 unwind label %41

40:                                               ; preds = %35
  ret void

41:                                               ; preds = %35, %30, %25
  %42 = landingpad { ptr, i32 }
          catch ptr null
  %43 = extractvalue { ptr, i32 } %42, 0
  tail call void @__clang_call_terminate(ptr %43) #16
  unreachable
}